target datalayout = "e-m:e-p270:32:32-p271:32:32-p272:64:64-i64:64-i128:128-f80:128-n8:16:32:64-S128"
target triple = "x86_64-pc-linux-gnu"

%"struct.duckdb::CompressionState" = type { ptr, %"class.duckdb::CompressionInfo" }
%"class.duckdb::CompressionInfo" = type { i64 }
%"struct.duckdb::DictionaryAnalyzeState" = type <{ %"class.duckdb::DictionaryCompressionState", i64, i64, i64, i64, %"class.duckdb::StringHeap", %"class.std::unordered_set", i8, i8, [6 x i8] }>
%"class.duckdb::DictionaryCompressionState" = type { %"struct.duckdb::CompressionState" }
%"class.duckdb::StringHeap" = type { %"class.duckdb::ArenaAllocator" }
%"class.duckdb::ArenaAllocator" = type { ptr, i64, %"class.duckdb::unique_ptr.33", ptr, %"class.duckdb::Allocator", i64 }
%"class.duckdb::unique_ptr.33" = type { %"class.std::unique_ptr.34" }
%"class.std::unique_ptr.34" = type { %"struct.std::__uniq_ptr_data.35" }
%"struct.std::__uniq_ptr_data.35" = type { %"class.std::__uniq_ptr_impl.36" }
%"class.std::__uniq_ptr_impl.36" = type { %"class.std::tuple.37" }
%"class.std::tuple.37" = type { %"struct.std::_Tuple_impl.38" }
%"struct.std::_Tuple_impl.38" = type { %"struct.std::_Head_base.41" }
%"struct.std::_Head_base.41" = type { ptr }
%"class.duckdb::Allocator" = type { ptr, ptr, ptr, %"class.duckdb::unique_ptr.42" }
%"class.duckdb::unique_ptr.42" = type { %"class.std::unique_ptr.43" }
%"class.std::unique_ptr.43" = type { %"struct.std::__uniq_ptr_data.44" }
%"struct.std::__uniq_ptr_data.44" = type { %"class.std::__uniq_ptr_impl.45" }
%"class.std::__uniq_ptr_impl.45" = type { %"class.std::tuple.46" }
%"class.std::tuple.46" = type { %"struct.std::_Tuple_impl.47" }
%"struct.std::_Tuple_impl.47" = type { %"struct.std::_Head_base.50" }
%"struct.std::_Head_base.50" = type { ptr }
%"class.std::unordered_set" = type { %"class.std::_Hashtable" }
%"class.std::_Hashtable" = type { ptr, i64, %"struct.std::__detail::_Hash_node_base", i64, %"struct.std::__detail::_Prime_rehash_policy", ptr }
%"struct.std::__detail::_Hash_node_base" = type { ptr }
%"struct.std::__detail::_Prime_rehash_policy" = type { float, i64 }

; Function Attrs: mustprogress uwtable
define linkonce_odr noundef i64 @_ZN6duckdb11NumericCastImivEET_T0_(i32 noundef %0) #0 comdat {
  %2 = alloca i32, align 4
  store i32 %0, ptr %2, align 4, !tbaa !67
  %3 = load i32, ptr %2, align 4, !tbaa !67
  %4 = call noundef i64 @_ZN6duckdb15NumericCastImplImiLb0EE7ConvertEi(i32 noundef %3)
  ret i64 %4
}

; Function Attrs: inlinehint mustprogress uwtable
define linkonce_odr noundef i64 @_ZN6duckdb20BitpackingPrimitives27RoundUpToAlgorithmGroupSizeImEET_S2_(i64 noundef %0) #2 comdat align 2 {
  %2 = alloca i64, align 8
  %3 = alloca i64, align 8
  %4 = alloca i32, align 4
  %5 = alloca i32, align 4
  store i64 %0, ptr %3, align 8, !tbaa !3
  call void @llvm.lifetime.start.p0(i64 4, ptr %4) #19
  %6 = load i64, ptr %3, align 8, !tbaa !3
  %7 = urem i64 %6, 32
  %8 = trunc i64 %7 to i32
  store i32 %8, ptr %4, align 4, !tbaa !67
  %9 = load i32, ptr %4, align 4, !tbaa !67
  %10 = icmp eq i32 %9, 0
  br i1 %10, label %11, label %13

11:                                               ; preds = %1
  %12 = load i64, ptr %3, align 8, !tbaa !3
  store i64 %12, ptr %2, align 8
  store i32 1, ptr %5, align 4
  br label %19

13:                                               ; preds = %1
  %14 = load i64, ptr %3, align 8, !tbaa !3
  %15 = add i64 %14, 32
  %16 = load i32, ptr %4, align 4, !tbaa !67
  %17 = call noundef i64 @_ZN6duckdb11NumericCastImivEET_T0_(i32 noundef %16)
  %18 = sub i64 %15, %17
  store i64 %18, ptr %2, align 8
  store i32 1, ptr %5, align 4
  br label %19

19:                                               ; preds = %13, %11
  call void @llvm.lifetime.end.p0(i64 4, ptr %4) #19
  %20 = load i64, ptr %2, align 8
  ret i64 %20
}

; Function Attrs: mustprogress nounwind uwtable
define linkonce_odr noundef zeroext i8 @_ZN6duckdb20BitpackingPrimitives17GetEffectiveWidthImEEhh(i8 noundef zeroext %0) #3 comdat align 2 {
  %2 = alloca i8, align 1
  %3 = alloca i8, align 1
  %4 = alloca i8, align 1
  %5 = alloca i8, align 1
  %6 = alloca i32, align 4
  store i8 %0, ptr %3, align 1, !tbaa !7
  call void @llvm.lifetime.start.p0(i64 1, ptr %4) #19
  store i8 64, ptr %4, align 1, !tbaa !7
  call void @llvm.lifetime.start.p0(i64 1, ptr %5) #19
  store i8 8, ptr %5, align 1, !tbaa !7
  %7 = load i8, ptr %3, align 1, !tbaa !7
  %8 = zext i8 %7 to i32
  %9 = load i8, ptr %5, align 1, !tbaa !7
  %10 = zext i8 %9 to i32
  %11 = add nsw i32 %8, %10
  %12 = load i8, ptr %4, align 1, !tbaa !7
  %13 = zext i8 %12 to i32
  %14 = icmp sgt i32 %11, %13
  br i1 %14, label %15, label %17

15:                                               ; preds = %1
  %16 = load i8, ptr %4, align 1, !tbaa !7
  store i8 %16, ptr %2, align 1
  store i32 1, ptr %6, align 4
  br label %19

17:                                               ; preds = %1
  %18 = load i8, ptr %3, align 1, !tbaa !7
  store i8 %18, ptr %2, align 1
  store i32 1, ptr %6, align 4
  br label %19

19:                                               ; preds = %17, %15
  call void @llvm.lifetime.end.p0(i64 1, ptr %5) #19
  call void @llvm.lifetime.end.p0(i64 1, ptr %4) #19
  %20 = load i8, ptr %2, align 1
  ret i8 %20
}

; Function Attrs: inlinehint mustprogress uwtable
define linkonce_odr noundef i64 @_ZN6duckdb20BitpackingPrimitives15GetRequiredSizeEmh(i64 noundef %0, i8 noundef zeroext %1) #2 comdat align 2 {
  %3 = alloca i64, align 8
  %4 = alloca i8, align 1
  store i64 %0, ptr %3, align 8, !tbaa !3
  store i8 %1, ptr %4, align 1, !tbaa !7
  %5 = load i64, ptr %3, align 8, !tbaa !3
  %6 = call noundef i64 @_ZN6duckdb20BitpackingPrimitives27RoundUpToAlgorithmGroupSizeImEET_S2_(i64 noundef %5)
  store i64 %6, ptr %3, align 8, !tbaa !3
  %7 = load i64, ptr %3, align 8, !tbaa !3
  %8 = load i8, ptr %4, align 1, !tbaa !7
  %9 = zext i8 %8 to i64
  %10 = mul i64 %7, %9
  %11 = udiv i64 %10, 8
  ret i64 %11
}

; Function Attrs: mustprogress uwtable
define linkonce_odr noundef zeroext i8 @_ZN6duckdb20BitpackingPrimitives19FindMinimumBitWidthImLb0ELb0EEEhT_S2_(i64 noundef %0, i64 noundef %1) #0 comdat align 2 {
  %3 = alloca i8, align 1
  %4 = alloca i64, align 8
  %5 = alloca i64, align 8
  %6 = alloca i8, align 1
  %7 = alloca i64, align 8
  %8 = alloca i32, align 4
  store i64 %0, ptr %4, align 8, !tbaa !3
  store i64 %1, ptr %5, align 8, !tbaa !3
  call void @llvm.lifetime.start.p0(i64 1, ptr %6) #19
  call void @llvm.lifetime.start.p0(i64 8, ptr %7) #19
  %9 = load i64, ptr %5, align 8, !tbaa !3
  store i64 %9, ptr %7, align 8, !tbaa !3
  %10 = load i64, ptr %7, align 8, !tbaa !3
  %11 = icmp eq i64 %10, 0
  br i1 %11, label %12, label %13

12:                                               ; preds = %2
  store i8 0, ptr %3, align 1
  store i32 1, ptr %8, align 4
  br label %26

13:                                               ; preds = %2
  store i8 0, ptr %6, align 1, !tbaa !7
  br label %14

14:                                               ; preds = %17, %13
  %15 = load i64, ptr %7, align 8, !tbaa !3
  %16 = icmp ne i64 %15, 0
  br i1 %16, label %17, label %22

17:                                               ; preds = %14
  %18 = load i8, ptr %6, align 1, !tbaa !7
  %19 = add i8 %18, 1
  store i8 %19, ptr %6, align 1, !tbaa !7
  %20 = load i64, ptr %7, align 8, !tbaa !3
  %21 = lshr i64 %20, 1
  store i64 %21, ptr %7, align 8, !tbaa !3
  br label %14, !llvm.loop !547

22:                                               ; preds = %14
  %23 = load i8, ptr %6, align 1, !tbaa !7
  %24 = call noundef zeroext i8 @_ZN6duckdb20BitpackingPrimitives17GetEffectiveWidthImEEhh(i8 noundef zeroext %23)
  store i8 %24, ptr %6, align 1, !tbaa !7
  %25 = load i8, ptr %6, align 1, !tbaa !7
  store i8 %25, ptr %3, align 1
  store i32 1, ptr %8, align 4
  br label %26

26:                                               ; preds = %22, %12
  call void @llvm.lifetime.end.p0(i64 8, ptr %7) #19
  call void @llvm.lifetime.end.p0(i64 1, ptr %6) #19
  %27 = load i8, ptr %3, align 1
  ret i8 %27
}

; Function Attrs: mustprogress uwtable
define noundef i64 @_ZN6duckdb21DictionaryCompression13RequiredSpaceEmmmh(i64 noundef %0, i64 noundef %1, i64 noundef %2, i8 noundef zeroext %3) #0 align 2 {
  %5 = alloca i64, align 8
  %6 = alloca i64, align 8
  %7 = alloca i64, align 8
  %8 = alloca i8, align 1
  %9 = alloca i64, align 8
  %10 = alloca i64, align 8
  %11 = alloca i64, align 8
  %12 = alloca i64, align 8
  store i64 %0, ptr %5, align 8, !tbaa !3
  store i64 %1, ptr %6, align 8, !tbaa !3
  store i64 %2, ptr %7, align 8, !tbaa !3
  store i8 %3, ptr %8, align 1, !tbaa !7
  call void @llvm.lifetime.start.p0(i64 8, ptr %9) #19
  %13 = load i64, ptr %7, align 8, !tbaa !3
  %14 = add i64 20, %13
  store i64 %14, ptr %9, align 8, !tbaa !3
  call void @llvm.lifetime.start.p0(i64 8, ptr %10) #19
  %15 = load i64, ptr %5, align 8, !tbaa !3
  %16 = load i8, ptr %8, align 1, !tbaa !7
  %17 = call noundef i64 @_ZN6duckdb20BitpackingPrimitives15GetRequiredSizeEmh(i64 noundef %15, i8 noundef zeroext %16)
  store i64 %17, ptr %10, align 8, !tbaa !3
  call void @llvm.lifetime.start.p0(i64 8, ptr %11) #19
  %18 = load i64, ptr %6, align 8, !tbaa !3
  %19 = mul i64 %18, 4
  store i64 %19, ptr %11, align 8, !tbaa !3
  call void @llvm.lifetime.start.p0(i64 8, ptr %12) #19
  %20 = load i64, ptr %9, align 8, !tbaa !3
  %21 = load i64, ptr %11, align 8, !tbaa !3
  %22 = add i64 %20, %21
  %23 = load i64, ptr %10, align 8, !tbaa !3
  %24 = add i64 %22, %23
  store i64 %24, ptr %12, align 8, !tbaa !3
  %25 = load i64, ptr %12, align 8, !tbaa !3
  call void @llvm.lifetime.end.p0(i64 8, ptr %12) #19
  call void @llvm.lifetime.end.p0(i64 8, ptr %11) #19
  call void @llvm.lifetime.end.p0(i64 8, ptr %10) #19
  call void @llvm.lifetime.end.p0(i64 8, ptr %9) #19
  ret i64 %25
}

; Function Attrs: inlinehint mustprogress uwtable
define linkonce_odr noundef zeroext i8 @_ZN6duckdb20BitpackingPrimitives15MinimumBitWidthImLb0EEEhT_(i64 noundef %0) #2 comdat align 2 {
  %2 = alloca i64, align 8
  store i64 %0, ptr %2, align 8, !tbaa !3
  %3 = load i64, ptr %2, align 8, !tbaa !3
  %4 = load i64, ptr %2, align 8, !tbaa !3
  %5 = call noundef zeroext i8 @_ZN6duckdb20BitpackingPrimitives19FindMinimumBitWidthImLb0ELb0EEEhT_S2_(i64 noundef %3, i64 noundef %4)
  ret i8 %5
}

; Function Attrs: mustprogress uwtable
define noundef zeroext i1 @_ZN6duckdb21DictionaryCompression14HasEnoughSpaceEmmmhm(i64 noundef %0, i64 noundef %1, i64 noundef %2, i8 noundef zeroext %3, i64 noundef %4) #0 align 2 {
  %6 = alloca i64, align 8
  %7 = alloca i64, align 8
  %8 = alloca i64, align 8
  %9 = alloca i8, align 1
  %10 = alloca i64, align 8
  store i64 %0, ptr %6, align 8, !tbaa !3
  store i64 %1, ptr %7, align 8, !tbaa !3
  store i64 %2, ptr %8, align 8, !tbaa !3
  store i8 %3, ptr %9, align 1, !tbaa !7
  store i64 %4, ptr %10, align 8, !tbaa !3
  %11 = load i64, ptr %6, align 8, !tbaa !3
  %12 = load i64, ptr %7, align 8, !tbaa !3
  %13 = load i64, ptr %8, align 8, !tbaa !3
  %14 = load i8, ptr %9, align 1, !tbaa !7
  %15 = call noundef i64 @_ZN6duckdb21DictionaryCompression13RequiredSpaceEmmmh(i64 noundef %11, i64 noundef %12, i64 noundef %13, i8 noundef zeroext %14)
  %16 = load i64, ptr %10, align 8, !tbaa !3
  %17 = icmp ule i64 %15, %16
  ret i1 %17
}

; Function Attrs: mustprogress nounwind uwtable
define linkonce_odr noundef i64 @_ZNK6duckdb15CompressionInfo12GetBlockSizeEv(ptr noundef nonnull align 8 dereferenceable(8) %0) #3 comdat align 2 {
  %2 = alloca ptr, align 8
  store ptr %0, ptr %2, align 8, !tbaa !72
  %3 = load ptr, ptr %2, align 8
  %4 = getelementptr inbounds nuw %"class.duckdb::CompressionInfo", ptr %3, i32 0, i32 0
  %5 = load i64, ptr %4, align 8, !tbaa !112
  ret i64 %5
}

; Function Attrs: mustprogress uwtable
define noundef zeroext i1 @_ZN6duckdb22DictionaryAnalyzeState26CalculateSpaceRequirementsEbm(ptr noundef nonnull align 8 dereferenceable(178) %0, i1 noundef zeroext %1, i64 noundef %2) unnamed_addr #0 align 2 {
  %4 = alloca i1, align 1
  %5 = alloca ptr, align 8
  %6 = alloca i8, align 1
  %7 = alloca i64, align 8
  store ptr %0, ptr %5, align 8, !tbaa !120
  %8 = zext i1 %1 to i8
  store i8 %8, ptr %6, align 1, !tbaa !98
  store i64 %2, ptr %7, align 8, !tbaa !3
  %9 = load ptr, ptr %5, align 8
  %10 = load i8, ptr %6, align 1, !tbaa !98, !range !99, !noundef !100
  %11 = trunc i8 %10 to i1
  br i1 %11, label %25, label %12

12:                                               ; preds = %3
  %13 = getelementptr inbounds nuw %"struct.duckdb::DictionaryAnalyzeState", ptr %9, i32 0, i32 2
  %14 = load i64, ptr %13, align 8, !tbaa !152
  %15 = add i64 %14, 1
  %16 = getelementptr inbounds nuw %"struct.duckdb::DictionaryAnalyzeState", ptr %9, i32 0, i32 3
  %17 = load i64, ptr %16, align 8, !tbaa !153
  %18 = getelementptr inbounds nuw %"struct.duckdb::DictionaryAnalyzeState", ptr %9, i32 0, i32 4
  %19 = load i64, ptr %18, align 8, !tbaa !154
  %20 = getelementptr inbounds nuw %"struct.duckdb::DictionaryAnalyzeState", ptr %9, i32 0, i32 7
  %21 = load i8, ptr %20, align 8, !tbaa !155
  %22 = getelementptr inbounds nuw %"struct.duckdb::CompressionState", ptr %9, i32 0, i32 1
  %23 = call noundef i64 @_ZNK6duckdb15CompressionInfo12GetBlockSizeEv(ptr noundef nonnull align 8 dereferenceable(8) %22)
  %24 = call noundef zeroext i1 @_ZN6duckdb21DictionaryCompression14HasEnoughSpaceEmmmhm(i64 noundef %15, i64 noundef %17, i64 noundef %19, i8 noundef zeroext %21, i64 noundef %23)
  store i1 %24, ptr %4, align 1
  br label %46

25:                                               ; preds = %3
  %26 = getelementptr inbounds nuw %"struct.duckdb::DictionaryAnalyzeState", ptr %9, i32 0, i32 3
  %27 = load i64, ptr %26, align 8, !tbaa !153
  %28 = add i64 %27, 2
  %29 = call noundef zeroext i8 @_ZN6duckdb20BitpackingPrimitives15MinimumBitWidthImLb0EEEhT_(i64 noundef %28)
  %30 = getelementptr inbounds nuw %"struct.duckdb::DictionaryAnalyzeState", ptr %9, i32 0, i32 8
  store i8 %29, ptr %30, align 1, !tbaa !156
  %31 = getelementptr inbounds nuw %"struct.duckdb::DictionaryAnalyzeState", ptr %9, i32 0, i32 2
  %32 = load i64, ptr %31, align 8, !tbaa !152
  %33 = add i64 %32, 1
  %34 = getelementptr inbounds nuw %"struct.duckdb::DictionaryAnalyzeState", ptr %9, i32 0, i32 3
  %35 = load i64, ptr %34, align 8, !tbaa !153
  %36 = add i64 %35, 1
  %37 = getelementptr inbounds nuw %"struct.duckdb::DictionaryAnalyzeState", ptr %9, i32 0, i32 4
  %38 = load i64, ptr %37, align 8, !tbaa !154
  %39 = load i64, ptr %7, align 8, !tbaa !3
  %40 = add i64 %38, %39
  %41 = getelementptr inbounds nuw %"struct.duckdb::DictionaryAnalyzeState", ptr %9, i32 0, i32 8
  %42 = load i8, ptr %41, align 1, !tbaa !156
  %43 = getelementptr inbounds nuw %"struct.duckdb::CompressionState", ptr %9, i32 0, i32 1
  %44 = call noundef i64 @_ZNK6duckdb15CompressionInfo12GetBlockSizeEv(ptr noundef nonnull align 8 dereferenceable(8) %43)
  %45 = call noundef zeroext i1 @_ZN6duckdb21DictionaryCompression14HasEnoughSpaceEmmmhm(i64 noundef %33, i64 noundef %36, i64 noundef %40, i8 noundef zeroext %42, i64 noundef %44)
  store i1 %45, ptr %4, align 1
  br label %46

46:                                               ; preds = %25, %12
  %47 = load i1, ptr %4, align 1
  ret i1 %47
}