; Function Attrs: mustprogress uwtable
define noundef zeroext i1 @_ZN6duckdb22DictionaryAnalyzeState26CalculateSpaceRequirementsEbm(ptr noundef nonnull align 8 captures(none) dereferenceable(178) %0, i1 noundef zeroext %1, i64 noundef %2) unnamed_addr #0 align 2 {
  br i1 %1, label %31, label %4

4:                                                ; preds = %3
  %5 = getelementptr inbounds nuw i8, ptr %0, i64 24
  %6 = load i64, ptr %5, align 8, !tbaa !106
  %7 = add i64 %6, 1
  %8 = getelementptr inbounds nuw i8, ptr %0, i64 32
  %9 = load i64, ptr %8, align 8, !tbaa !130
  %10 = getelementptr inbounds nuw i8, ptr %0, i64 40
  %11 = load i64, ptr %10, align 8, !tbaa !131
  %12 = getelementptr inbounds nuw i8, ptr %0, i64 176
  %13 = load i8, ptr %12, align 8, !tbaa !135
  %14 = getelementptr inbounds nuw i8, ptr %0, i64 8
  %15 = load i64, ptr %14, align 8, !tbaa !84
  %16 = trunc i64 %7 to i32
  %17 = and i32 %16, 31
  %18 = icmp eq i32 %17, 0
  br i1 %18, label %_ZN6duckdb21DictionaryCompression14HasEnoughSpaceEmmmhm.exit, label %19

19:                                               ; preds = %4
  %20 = add i64 %6, 33
  %21 = tail call noundef i64 @_ZN6duckdb15NumericCastImplImiLb0EE7ConvertEi(i32 noundef %17)
  %22 = sub i64 %20, %21
  br label %_ZN6duckdb21DictionaryCompression14HasEnoughSpaceEmmmhm.exit

_ZN6duckdb21DictionaryCompression14HasEnoughSpaceEmmmhm.exit: ; preds = %4, %19
  %.0.i.i.i.i = phi i64 [ %22, %19 ], [ %7, %4 ]
  %23 = add i64 %11, 20
  %24 = zext i8 %13 to i64
  %25 = mul i64 %.0.i.i.i.i, %24
  %26 = lshr i64 %25, 3
  %27 = shl i64 %9, 2
  %28 = add i64 %23, %27
  %29 = add i64 %28, %26
  %30 = icmp ule i64 %29, %15
  br label %64

31:                                               ; preds = %3
  %32 = getelementptr inbounds nuw i8, ptr %0, i64 32
  %33 = load i64, ptr %32, align 8, !tbaa !130
  %34 = add i64 %33, 2
  %35 = icmp eq i64 %34, 0
  br i1 %35, label %_ZN6duckdb20BitpackingPrimitives15MinimumBitWidthImLb0EEEhT_.exit, label %.preheader.preheader.i.i

.preheader.preheader.i.i:                         ; preds = %31
  %36 = tail call range(i64 0, 65) i64 @llvm.ctlz.i64(i64 %34, i1 true)
  %37 = trunc nuw nsw i64 %36 to i8
  %38 = sub nuw nsw i8 64, %37
  %39 = icmp ugt i64 %34, 72057594037927935
  %..i.i.i = select i1 %39, i8 64, i8 %38
  br label %_ZN6duckdb20BitpackingPrimitives15MinimumBitWidthImLb0EEEhT_.exit

_ZN6duckdb20BitpackingPrimitives15MinimumBitWidthImLb0EEEhT_.exit: ; preds = %31, %.preheader.preheader.i.i
  %.09.i.i = phi i8 [ %..i.i.i, %.preheader.preheader.i.i ], [ 0, %31 ]
  %40 = getelementptr inbounds nuw i8, ptr %0, i64 177
  store i8 %.09.i.i, ptr %40, align 1, !tbaa !134
  %41 = getelementptr inbounds nuw i8, ptr %0, i64 24
  %42 = load i64, ptr %41, align 8, !tbaa !106
  %43 = add i64 %42, 1
  %44 = getelementptr inbounds nuw i8, ptr %0, i64 40
  %45 = load i64, ptr %44, align 8, !tbaa !131
  %46 = getelementptr inbounds nuw i8, ptr %0, i64 8
  %47 = load i64, ptr %46, align 8, !tbaa !84
  %48 = trunc i64 %43 to i32
  %49 = and i32 %48, 31
  %50 = icmp eq i32 %49, 0
  br i1 %50, label %_ZN6duckdb21DictionaryCompression14HasEnoughSpaceEmmmhm.exit4, label %51

51:                                               ; preds = %_ZN6duckdb20BitpackingPrimitives15MinimumBitWidthImLb0EEEhT_.exit
  %52 = add i64 %42, 33
  %53 = tail call noundef i64 @_ZN6duckdb15NumericCastImplImiLb0EE7ConvertEi(i32 noundef %49)
  %54 = sub i64 %52, %53
  br label %_ZN6duckdb21DictionaryCompression14HasEnoughSpaceEmmmhm.exit4

_ZN6duckdb21DictionaryCompression14HasEnoughSpaceEmmmhm.exit4: ; preds = %_ZN6duckdb20BitpackingPrimitives15MinimumBitWidthImLb0EEEhT_.exit, %51
  %.0.i.i.i.i3 = phi i64 [ %54, %51 ], [ %43, %_ZN6duckdb20BitpackingPrimitives15MinimumBitWidthImLb0EEEhT_.exit ]
  %55 = zext nneg i8 %.09.i.i to i64
  %56 = mul i64 %.0.i.i.i.i3, %55
  %57 = lshr i64 %56, 3
  %58 = shl i64 %33, 2
  %59 = add i64 %2, 24
  %60 = add i64 %59, %58
  %61 = add i64 %60, %45
  %62 = add i64 %61, %57
  %63 = icmp ule i64 %62, %47
  br label %64

64:                                               ; preds = %_ZN6duckdb21DictionaryCompression14HasEnoughSpaceEmmmhm.exit4, %_ZN6duckdb21DictionaryCompression14HasEnoughSpaceEmmmhm.exit
  %.0 = phi i1 [ %63, %_ZN6duckdb21DictionaryCompression14HasEnoughSpaceEmmmhm.exit4 ], [ %30, %_ZN6duckdb21DictionaryCompression14HasEnoughSpaceEmmmhm.exit ]
  ret i1 %.0
}